; Function Attrs: nounwind sspstrong uwtable
define internal noundef i64 @rb_thread_exit(i64 %0) #0 {
  %2 = tail call align 8 ptr @llvm.threadlocal.address.p0(ptr align 8 @ruby_current_ec)
  %3 = load ptr, ptr %2, align 8, !tbaa !148
  %4 = getelementptr i8, ptr %3, i64 48
  %.val.i = load ptr, ptr %4, align 8, !tbaa !7
  %5 = getelementptr inbounds nuw i8, ptr %.val.i, i64 16
  %6 = load i64, ptr %5, align 8, !tbaa !88
  %7 = tail call i64 @rb_thread_kill(i64 noundef %6)
  ret i64 %6
}